; Function Attrs: mustprogress uwtable
define dso_local noundef zeroext i1 @_ZN18cmCTestTestHandler8GetValueEPKcRiRSi(ptr nocapture noundef nonnull readonly align 8 dereferenceable(4416) %0, ptr noundef %1, ptr noundef nonnull align 4 dereferenceable(4) %2, ptr noundef nonnull align 8 dereferenceable(16) %3) local_unnamed_addr #3 align 2 personality ptr @__gxx_personality_v0 {
  %5 = alloca %"class.std::__cxx11::basic_string", align 8
  %6 = alloca %"class.std::__cxx11::basic_ostringstream", align 8
  %7 = alloca %"class.std::__cxx11::basic_string", align 8
  call void @_ZNSt7__cxx1112basic_stringIcSt11char_traitsIcESaIcEEC1Ev(ptr noundef nonnull align 8 dereferenceable(32) %5) #25
  %8 = invoke noundef zeroext i1 @_ZN5cmsys11SystemTools17GetLineFromStreamERSiRNSt7__cxx1112basic_stringIcSt11char_traitsIcESaIcEEEPbm(ptr noundef nonnull align 8 dereferenceable(16) %3, ptr noundef nonnull align 8 dereferenceable(32) %5, ptr noundef null, i64 noundef -1)
          to label %9 unwind label %16

9:                                                ; preds = %4
  %10 = call noundef i32 @_ZNKSt7__cxx1112basic_stringIcSt11char_traitsIcESaIcEE7compareEPKc(ptr noundef nonnull align 8 dereferenceable(32) %5, ptr noundef %1) #25
  %11 = icmp eq i32 %10, 0
  br i1 %11, label %12, label %18

12:                                               ; preds = %9
  %13 = invoke noundef nonnull align 8 dereferenceable(16) ptr @_ZNSirsERi(ptr noundef nonnull align 8 dereferenceable(16) %3, ptr noundef nonnull align 4 dereferenceable(4) %2)
          to label %14 unwind label %16

14:                                               ; preds = %12
  %15 = invoke noundef zeroext i1 @_ZN5cmsys11SystemTools17GetLineFromStreamERSiRNSt7__cxx1112basic_stringIcSt11char_traitsIcESaIcEEEPbm(ptr noundef nonnull align 8 dereferenceable(16) %3, ptr noundef nonnull align 8 dereferenceable(32) %5, ptr noundef null, i64 noundef -1)
          to label %42 unwind label %16

16:                                               ; preds = %18, %14, %12, %4
  %17 = landingpad { ptr, i32 }
          cleanup
  br label %43

18:                                               ; preds = %9
  invoke void @_ZNSt7__cxx1119basic_ostringstreamIcSt11char_traitsIcESaIcEEC1Ev(ptr noundef nonnull align 8 dereferenceable(112) %6)
          to label %19 unwind label %16

19:                                               ; preds = %18
  %20 = invoke noundef nonnull align 8 dereferenceable(8) ptr @_ZStlsISt11char_traitsIcEERSt13basic_ostreamIcT_ES5_PKc(ptr noundef nonnull align 8 dereferenceable(8) %6, ptr noundef nonnull @.str.86)
          to label %21 unwind label %37

21:                                               ; preds = %19
  %22 = invoke noundef nonnull align 8 dereferenceable(8) ptr @_ZStlsISt11char_traitsIcEERSt13basic_ostreamIcT_ES5_PKc(ptr noundef nonnull align 8 dereferenceable(8) %20, ptr noundef %1)
          to label %23 unwind label %37

23:                                               ; preds = %21
  %24 = invoke noundef nonnull align 8 dereferenceable(8) ptr @_ZStlsISt11char_traitsIcEERSt13basic_ostreamIcT_ES5_PKc(ptr noundef nonnull align 8 dereferenceable(8) %22, ptr noundef nonnull @.str.87)
          to label %25 unwind label %37

25:                                               ; preds = %23
  %26 = invoke noundef nonnull align 8 dereferenceable(8) ptr @_ZStlsIcSt11char_traitsIcESaIcEERSt13basic_ostreamIT_T0_ES7_RKNSt7__cxx1112basic_stringIS4_S5_T1_EE(ptr noundef nonnull align 8 dereferenceable(8) %24, ptr noundef nonnull align 8 dereferenceable(32) %5)
          to label %27 unwind label %37

27:                                               ; preds = %25
  %28 = invoke noundef nonnull align 8 dereferenceable(8) ptr @_ZStlsISt11char_traitsIcEERSt13basic_ostreamIcT_ES5_PKc(ptr noundef nonnull align 8 dereferenceable(8) %26, ptr noundef nonnull @.str.88)
          to label %29 unwind label %37

29:                                               ; preds = %27
  %30 = invoke noundef nonnull align 8 dereferenceable(8) ptr @_ZNSolsEPFRSoS_E(ptr noundef nonnull align 8 dereferenceable(8) %28, ptr noundef nonnull @_ZSt4endlIcSt11char_traitsIcEERSt13basic_ostreamIT_T0_ES6_)
          to label %31 unwind label %37

31:                                               ; preds = %29
  %32 = getelementptr inbounds i8, ptr %0, i64 32
  %33 = load ptr, ptr %32, align 8
  invoke void @_ZNKSt7__cxx1119basic_ostringstreamIcSt11char_traitsIcESaIcEE3strEv(ptr dead_on_unwind nonnull writable sret(%"class.std::__cxx11::basic_string") align 8 %7, ptr noundef nonnull align 8 dereferenceable(112) %6)
          to label %34 unwind label %37

34:                                               ; preds = %31
  %35 = call noundef ptr @_ZNKSt7__cxx1112basic_stringIcSt11char_traitsIcESaIcEE5c_strEv(ptr noundef nonnull align 8 dereferenceable(32) %7) #25
  invoke void @_ZN7cmCTest3LogEiPKciS1_b(ptr noundef nonnull align 8 dereferenceable(8) %33, i32 noundef 7, ptr noundef nonnull @.str.13, i32 noundef 1264, ptr noundef %35, i1 noundef zeroext false)
          to label %36 unwind label %39

36:                                               ; preds = %34
  call void @_ZNSt7__cxx1112basic_stringIcSt11char_traitsIcESaIcEED1Ev(ptr noundef nonnull align 8 dereferenceable(32) %7) #25
  call void @_ZNSt7__cxx1119basic_ostringstreamIcSt11char_traitsIcESaIcEED1Ev(ptr noundef nonnull align 8 dereferenceable(112) %6) #25
  br label %42

37:                                               ; preds = %31, %29, %27, %25, %23, %21, %19
  %38 = landingpad { ptr, i32 }
          cleanup
  br label %41

39:                                               ; preds = %34
  %40 = landingpad { ptr, i32 }
          cleanup
  call void @_ZNSt7__cxx1112basic_stringIcSt11char_traitsIcESaIcEED1Ev(ptr noundef nonnull align 8 dereferenceable(32) %7) #25
  br label %41

41:                                               ; preds = %39, %37
  %.pn = phi { ptr, i32 } [ %40, %39 ], [ %38, %37 ]
  call void @_ZNSt7__cxx1119basic_ostringstreamIcSt11char_traitsIcESaIcEED1Ev(ptr noundef nonnull align 8 dereferenceable(112) %6) #25
  br label %43

42:                                               ; preds = %14, %36
  %.011 = phi i1 [ false, %36 ], [ %15, %14 ]
  call void @_ZNSt7__cxx1112basic_stringIcSt11char_traitsIcESaIcEED1Ev(ptr noundef nonnull align 8 dereferenceable(32) %5) #25
  ret i1 %.011

43:                                               ; preds = %41, %16
  %.pn13 = phi { ptr, i32 } [ %17, %16 ], [ %.pn, %41 ]
  call void @_ZNSt7__cxx1112basic_stringIcSt11char_traitsIcESaIcEED1Ev(ptr noundef nonnull align 8 dereferenceable(32) %5) #25
  resume { ptr, i32 } %.pn13
}